target datalayout = "e-m:e-p270:32:32-p271:32:32-p272:64:64-i64:64-i128:128-f80:128-n8:16:32:64-S128"
target triple = "x86_64-pc-linux-gnu"

@H5_libinit_g = external global i8, align 1
@H5_libterm_g = external global i8, align 1
@.str = private unnamed_addr constant [97 x i8] c"generated/home/dtcxzyw/WorkSpace/Projects/compilers/llvm-opt-benchmark/bench/hdf5/hdf5/src/H5I.c\00", align 1
@H5E_FUNC_g = external global i64, align 8
@H5E_CANTINIT_g = external global i64, align 8
@.str.1 = private unnamed_addr constant [30 x i8] c"library initialization failed\00", align 1
@H5E_CANTSET_g = external global i64, align 8
@.str.2 = private unnamed_addr constant [22 x i8] c"can't set API context\00", align 1
@H5I_next_type_g = external global i32, align 4
@H5E_ID_g = external global i64, align 8
@H5E_BADGROUP_g = external global i64, align 8
@.str.6 = private unnamed_addr constant [44 x i8] c"cannot call public function on library type\00", align 1
@__func__.H5Iobject_verify = private unnamed_addr constant [17 x i8] c"H5Iobject_verify\00", align 1
@.str.12 = private unnamed_addr constant [28 x i8] c"identifier has invalid type\00", align 1

; Function Attrs: nounwind uwtable
define ptr @H5Iobject_verify(i64 noundef %0, i32 noundef %1) #0 {
  %3 = alloca i64, align 8
  %4 = alloca i32, align 4
  %5 = alloca ptr, align 8
  %6 = alloca i8, align 1
  %7 = alloca i8, align 1
  store i64 %0, ptr %3, align 8
  store i32 %1, ptr %4, align 4
  store ptr null, ptr %5, align 8
  store i8 0, ptr %6, align 1
  store i8 0, ptr %7, align 1
  %8 = load i8, ptr @H5_libinit_g, align 1
  %9 = trunc i8 %8 to i1
  br i1 %9, label %14, label %10

10:                                               ; preds = %2
  %11 = load i8, ptr @H5_libterm_g, align 1
  %12 = trunc i8 %11 to i1
  %13 = xor i1 %12, true
  br label %14

14:                                               ; preds = %10, %2
  %15 = phi i1 [ false, %2 ], [ %13, %10 ]
  %16 = xor i1 %15, true
  %17 = xor i1 %16, true
  %18 = zext i1 %17 to i32
  %19 = sext i32 %18 to i64
  %20 = icmp ne i64 %19, 0
  br i1 %20, label %21, label %45

21:                                               ; preds = %14
  %22 = call i32 @H5_init_library()
  %23 = icmp slt i32 %22, 0
  %24 = xor i1 %23, true
  %25 = xor i1 %24, true
  %26 = zext i1 %25 to i32
  %27 = sext i32 %26 to i64
  %28 = icmp ne i64 %27, 0
  br i1 %28, label %29, label %44

29:                                               ; preds = %21
  br label %30

30:                                               ; preds = %29
  br label %31

31:                                               ; preds = %30
  br label %32

32:                                               ; preds = %31
  %33 = load i64, ptr @H5E_FUNC_g, align 8
  %34 = load i64, ptr @H5E_CANTINIT_g, align 8
  %35 = call i32 (ptr, ptr, i32, i64, i64, ptr, ...) @H5E_printf_stack(ptr noundef @.str, ptr noundef @__func__.H5Iobject_verify, i32 noundef 361, i64 noundef %33, i64 noundef %34, ptr noundef @.str.1)
  br label %36

36:                                               ; preds = %32
  store i8 1, ptr %7, align 1
  %37 = load i8, ptr %7, align 1
  %38 = trunc i8 %37 to i1
  %39 = zext i1 %38 to i8
  store i8 %39, ptr %7, align 1
  br label %40

40:                                               ; preds = %36
  br label %41

41:                                               ; preds = %40
  store ptr null, ptr %5, align 8
  br label %117

42:                                               ; No predecessors!
  br label %43

43:                                               ; preds = %42
  br label %44

44:                                               ; preds = %43, %21
  br label %45

45:                                               ; preds = %44, %14
  %46 = call i32 @H5CX_push()
  %47 = icmp slt i32 %46, 0
  %48 = xor i1 %47, true
  %49 = xor i1 %48, true
  %50 = zext i1 %49 to i32
  %51 = sext i32 %50 to i64
  %52 = icmp ne i64 %51, 0
  br i1 %52, label %53, label %68

53:                                               ; preds = %45
  br label %54

54:                                               ; preds = %53
  br label %55

55:                                               ; preds = %54
  br label %56

56:                                               ; preds = %55
  %57 = load i64, ptr @H5E_FUNC_g, align 8
  %58 = load i64, ptr @H5E_CANTSET_g, align 8
  %59 = call i32 (ptr, ptr, i32, i64, i64, ptr, ...) @H5E_printf_stack(ptr noundef @.str, ptr noundef @__func__.H5Iobject_verify, i32 noundef 361, i64 noundef %57, i64 noundef %58, ptr noundef @.str.2)
  br label %60

60:                                               ; preds = %56
  store i8 1, ptr %7, align 1
  %61 = load i8, ptr %7, align 1
  %62 = trunc i8 %61 to i1
  %63 = zext i1 %62 to i8
  store i8 %63, ptr %7, align 1
  br label %64

64:                                               ; preds = %60
  br label %65

65:                                               ; preds = %64
  store ptr null, ptr %5, align 8
  br label %117

66:                                               ; No predecessors!
  br label %67

67:                                               ; preds = %66
  br label %69

68:                                               ; preds = %45
  store i8 1, ptr %6, align 1
  br label %69

69:                                               ; preds = %68, %67
  %70 = call i32 @H5E_clear_stack()
  %71 = load i32, ptr %4, align 4
  %72 = icmp sgt i32 %71, 0
  br i1 %72, label %73, label %91

73:                                               ; preds = %69
  %74 = load i32, ptr %4, align 4
  %75 = icmp slt i32 %74, 17
  br i1 %75, label %76, label %91

76:                                               ; preds = %73
  br label %77

77:                                               ; preds = %76
  br label %78

78:                                               ; preds = %77
  br label %79

79:                                               ; preds = %78
  %80 = load i64, ptr @H5E_ID_g, align 8
  %81 = load i64, ptr @H5E_BADGROUP_g, align 8
  %82 = call i32 (ptr, ptr, i32, i64, i64, ptr, ...) @H5E_printf_stack(ptr noundef @.str, ptr noundef @__func__.H5Iobject_verify, i32 noundef 365, i64 noundef %80, i64 noundef %81, ptr noundef @.str.6)
  br label %83

83:                                               ; preds = %79
  store i8 1, ptr %7, align 1
  %84 = load i8, ptr %7, align 1
  %85 = trunc i8 %84 to i1
  %86 = zext i1 %85 to i8
  store i8 %86, ptr %7, align 1
  br label %87

87:                                               ; preds = %83
  br label %88

88:                                               ; preds = %87
  store ptr null, ptr %5, align 8
  br label %117

89:                                               ; No predecessors!
  br label %90

90:                                               ; preds = %89
  br label %91

91:                                               ; preds = %90, %73, %69
  %92 = load i32, ptr %4, align 4
  %93 = icmp slt i32 %92, 1
  br i1 %93, label %98, label %94

94:                                               ; preds = %91
  %95 = load i32, ptr %4, align 4
  %96 = load i32, ptr @H5I_next_type_g, align 4
  %97 = icmp sge i32 %95, %96
  br i1 %97, label %98, label %113

98:                                               ; preds = %94, %91
  br label %99

99:                                               ; preds = %98
  br label %100

100:                                              ; preds = %99
  br label %101

101:                                              ; preds = %100
  %102 = load i64, ptr @H5E_ID_g, align 8
  %103 = load i64, ptr @H5E_BADGROUP_g, align 8
  %104 = call i32 (ptr, ptr, i32, i64, i64, ptr, ...) @H5E_printf_stack(ptr noundef @.str, ptr noundef @__func__.H5Iobject_verify, i32 noundef 367, i64 noundef %102, i64 noundef %103, ptr noundef @.str.12)
  br label %105

105:                                              ; preds = %101
  store i8 1, ptr %7, align 1
  %106 = load i8, ptr %7, align 1
  %107 = trunc i8 %106 to i1
  %108 = zext i1 %107 to i8
  store i8 %108, ptr %7, align 1
  br label %109

109:                                              ; preds = %105
  br label %110

110:                                              ; preds = %109
  store ptr null, ptr %5, align 8
  br label %117

111:                                              ; No predecessors!
  br label %112

112:                                              ; preds = %111
  br label %113

113:                                              ; preds = %112, %94
  %114 = load i64, ptr %3, align 8
  %115 = load i32, ptr %4, align 4
  %116 = call ptr @H5I_object_verify(i64 noundef %114, i32 noundef %115)
  store ptr %116, ptr %5, align 8
  br label %117

117:                                              ; preds = %113, %110, %88, %65, %41
  %118 = load i8, ptr %6, align 1
  %119 = trunc i8 %118 to i1
  %120 = xor i1 %119, true
  %121 = xor i1 %120, true
  %122 = zext i1 %121 to i32
  %123 = sext i32 %122 to i64
  %124 = icmp ne i64 %123, 0
  br i1 %124, label %125, label %127

125:                                              ; preds = %117
  %126 = call i32 @H5CX_pop(i1 noundef zeroext true)
  store i8 0, ptr %6, align 1
  br label %127

127:                                              ; preds = %125, %117
  %128 = load i8, ptr %7, align 1
  %129 = trunc i8 %128 to i1
  %130 = xor i1 %129, true
  %131 = xor i1 %130, true
  %132 = zext i1 %131 to i32
  %133 = sext i32 %132 to i64
  %134 = icmp ne i64 %133, 0
  br i1 %134, label %135, label %137

135:                                              ; preds = %127
  %136 = call i32 @H5E_dump_api_stack()
  br label %137

137:                                              ; preds = %135, %127
  %138 = load ptr, ptr %5, align 8
  ret ptr %138
}